target datalayout = "e-m:e-p270:32:32-p271:32:32-p272:64:64-i64:64-i128:128-f80:128-n8:16:32:64-S128"
target triple = "x86_64-pc-linux-gnu"

@.str.41 = private unnamed_addr constant [18 x i8] c"base out of range\00", align 1

; Function Attrs: mustprogress uwtable
define internal noundef i32 @_ZL13luaB_tonumberP9lua_State(ptr noundef %0) #0 {
  %2 = alloca i32, align 4
  %3 = alloca ptr, align 8
  %4 = alloca i32, align 4
  %5 = alloca i32, align 4
  %6 = alloca double, align 8
  %7 = alloca ptr, align 8
  %8 = alloca ptr, align 8
  %9 = alloca i64, align 8
  store ptr %0, ptr %3, align 8
  %10 = load ptr, ptr %3, align 8
  %11 = call noundef i32 @_Z15luaL_optintegerP9lua_Stateii(ptr noundef %10, i32 noundef 2, i32 noundef 10)
  store i32 %11, ptr %4, align 4
  %12 = load i32, ptr %4, align 4
  %13 = icmp eq i32 %12, 10
  br i1 %13, label %14, label %24

14:                                               ; preds = %1
  store i32 0, ptr %5, align 4
  %15 = load ptr, ptr %3, align 8
  %16 = call noundef double @_Z13lua_tonumberxP9lua_StateiPi(ptr noundef %15, i32 noundef 1, ptr noundef %5)
  store double %16, ptr %6, align 8
  %17 = load i32, ptr %5, align 4
  %18 = icmp ne i32 %17, 0
  br i1 %18, label %19, label %22

19:                                               ; preds = %14
  %20 = load ptr, ptr %3, align 8
  %21 = load double, ptr %6, align 8
  call void @_Z14lua_pushnumberP9lua_Stated(ptr noundef %20, double noundef %21)
  store i32 1, ptr %2, align 4
  br label %66

22:                                               ; preds = %14
  %23 = load ptr, ptr %3, align 8
  call void @_Z13luaL_checkanyP9lua_Statei(ptr noundef %23, i32 noundef 1)
  br label %64

24:                                               ; preds = %1
  %25 = load ptr, ptr %3, align 8
  %26 = call noundef ptr @_Z17luaL_checklstringP9lua_StateiPm(ptr noundef %25, i32 noundef 1, ptr noundef null)
  store ptr %26, ptr %7, align 8
  %27 = load i32, ptr %4, align 4
  %28 = icmp sle i32 2, %27
  br i1 %28, label %29, label %33

29:                                               ; preds = %24
  %30 = load i32, ptr %4, align 4
  %31 = icmp sle i32 %30, 36
  br i1 %31, label %32, label %33

32:                                               ; preds = %29
  br label %36

33:                                               ; preds = %29, %24
  %34 = load ptr, ptr %3, align 8
  call void @_Z14luaL_argerrorLP9lua_StateiPKc(ptr noundef %34, i32 noundef 2, ptr noundef @.str.41) #5
  unreachable

35:                                               ; No predecessors!
  br label %36

36:                                               ; preds = %35, %32
  %37 = load ptr, ptr %7, align 8
  %38 = load i32, ptr %4, align 4
  %39 = call i64 @strtoull(ptr noundef %37, ptr noundef %8, i32 noundef %38) #6
  store i64 %39, ptr %9, align 8
  %40 = load ptr, ptr %7, align 8
  %41 = load ptr, ptr %8, align 8
  %42 = icmp ne ptr %40, %41
  br i1 %42, label %43, label %63

43:                                               ; preds = %36
  br label %44

44:                                               ; preds = %50, %43
  %45 = load ptr, ptr %8, align 8
  %46 = load i8, ptr %45, align 1
  %47 = zext i8 %46 to i32
  %48 = call i32 @isspace(i32 noundef %47) #7
  %49 = icmp ne i32 %48, 0
  br i1 %49, label %50, label %53

50:                                               ; preds = %44
  %51 = load ptr, ptr %8, align 8
  %52 = getelementptr inbounds i8, ptr %51, i32 1
  store ptr %52, ptr %8, align 8
  br label %44, !llvm.loop !7

53:                                               ; preds = %44
  %54 = load ptr, ptr %8, align 8
  %55 = load i8, ptr %54, align 1
  %56 = sext i8 %55 to i32
  %57 = icmp eq i32 %56, 0
  br i1 %57, label %58, label %62

58:                                               ; preds = %53
  %59 = load ptr, ptr %3, align 8
  %60 = load i64, ptr %9, align 8
  %61 = uitofp i64 %60 to double
  call void @_Z14lua_pushnumberP9lua_Stated(ptr noundef %59, double noundef %61)
  store i32 1, ptr %2, align 4
  br label %66

62:                                               ; preds = %53
  br label %63

63:                                               ; preds = %62, %36
  br label %64

64:                                               ; preds = %63, %22
  %65 = load ptr, ptr %3, align 8
  call void @_Z11lua_pushnilP9lua_State(ptr noundef %65)
  store i32 1, ptr %2, align 4
  br label %66

66:                                               ; preds = %64, %58, %19
  %67 = load i32, ptr %2, align 4
  ret i32 %67
}