; Function Attrs: mustprogress uwtable
define internal noundef i32 @_ZL13luaB_tonumberP9lua_State(ptr noundef %0) #0 {
  %2 = alloca i32, align 4
  %3 = alloca ptr, align 8
  %4 = tail call noundef i32 @_Z15luaL_optintegerP9lua_Stateii(ptr noundef %0, i32 noundef 2, i32 noundef 10)
  %5 = icmp eq i32 %4, 10
  br i1 %5, label %6, label %11

6:                                                ; preds = %1
  store i32 0, ptr %2, align 4
  %7 = call noundef double @_Z13lua_tonumberxP9lua_StateiPi(ptr noundef %0, i32 noundef 1, ptr noundef nonnull %2)
  %8 = load i32, ptr %2, align 4
  %.not18 = icmp eq i32 %8, 0
  br i1 %.not18, label %10, label %9

9:                                                ; preds = %6
  call void @_Z14lua_pushnumberP9lua_Stated(ptr noundef %0, double noundef %7)
  br label %28

10:                                               ; preds = %6
  call void @_Z13luaL_checkanyP9lua_Statei(ptr noundef %0, i32 noundef 1)
  br label %27

11:                                               ; preds = %1
  %12 = tail call noundef ptr @_Z17luaL_checklstringP9lua_StateiPm(ptr noundef %0, i32 noundef 1, ptr noundef null)
  %13 = add i32 %4, -2
  %or.cond = icmp ult i32 %13, 35
  br i1 %or.cond, label %15, label %14

14:                                               ; preds = %11
  tail call void @_Z14luaL_argerrorLP9lua_StateiPKc(ptr noundef %0, i32 noundef 2, ptr noundef nonnull @.str.41) #9
  unreachable

15:                                               ; preds = %11
  %16 = call i64 @strtoull(ptr noundef %12, ptr noundef nonnull %3, i32 noundef %4) #10
  %17 = load ptr, ptr %3, align 8
  %.not = icmp eq ptr %12, %17
  br i1 %.not, label %27, label %.preheader

.preheader:                                       ; preds = %15, %.preheader
  %18 = phi ptr [ %22, %.preheader ], [ %17, %15 ]
  %19 = load i8, ptr %18, align 1
  %20 = zext i8 %19 to i32
  %21 = tail call i32 @isspace(i32 noundef %20) #11
  %.not17 = icmp eq i32 %21, 0
  %22 = getelementptr inbounds i8, ptr %18, i64 1
  br i1 %.not17, label %23, label %.preheader, !llvm.loop !7

23:                                               ; preds = %.preheader
  %24 = icmp eq i8 %19, 0
  br i1 %24, label %25, label %27

25:                                               ; preds = %23
  %26 = uitofp i64 %16 to double
  tail call void @_Z14lua_pushnumberP9lua_Stated(ptr noundef %0, double noundef %26)
  br label %28

27:                                               ; preds = %15, %23, %10
  call void @_Z11lua_pushnilP9lua_State(ptr noundef %0)
  br label %28

28:                                               ; preds = %27, %25, %9
  ret i32 1
}